ccopy_reg
_reconstructor
p0
(c__main__
Annotation
p1
c__builtin__
object
p2
Ntp3
Rp4
(dp5
S'anns'
p6
(lp7
(S'convo46'
p8
I3610
tp9
a(g8
I3578
tp10
a(g8
I3546
tp11
a(g8
I3514
tp12
a(g8
I3482
tp13
a(g8
I3450
tp14
a(g8
I3418
tp15
a(g8
I3386
tp16
a(g8
I3354
tp17
a(g8
I3322
tp18
a(g8
I3290
tp19
a(g8
I3258
tp20
a(g8
I3226
tp21
a(g8
I3194
tp22
a(g8
I3162
tp23
a(g8
I3130
tp24
a(g8
I3098
tp25
a(g8
I3066
tp26
a(g8
I3034
tp27
a(g8
I3002
tp28
a(g8
I2970
tp29
a(g8
I2938
tp30
a(g8
I2906
tp31
a(g8
I2874
tp32
a(g8
I2842
tp33
a(g8
I2810
tp34
a(g8
I2778
tp35
a(g8
I2746
tp36
a(g8
I2714
tp37
a(g8
I2682
tp38
a(g8
I2650
tp39
a(g8
I2618
tp40
a(g8
I2586
tp41
a(g8
I2554
tp42
a(g8
I2522
tp43
a(g8
I2490
tp44
a(g8
I2458
tp45
a(g8
I2426
tp46
a(g8
I2394
tp47
a(g8
I2362
tp48
a(g8
I2330
tp49
a(g8
I2298
tp50
a(g8
I2266
tp51
a(g8
I2234
tp52
a(g8
I2202
tp53
a(g8
I2170
tp54
a(g8
I2138
tp55
a(g8
I2106
tp56
a(g8
I2074
tp57
a(g8
I2042
tp58
a(g8
I2010
tp59
a(g8
I1978
tp60
a(g8
I1946
tp61
a(g8
I1914
tp62
a(g8
I1882
tp63
a(g8
I1850
tp64
a(g8
I1818
tp65
a(g8
I1786
tp66
a(g8
I1754
tp67
a(g8
I1722
tp68
a(g8
I1690
tp69
a(g8
I1658
tp70
a(g8
I1626
tp71
a(g8
I1594
tp72
a(g8
I1562
tp73
a(g8
I1530
tp74
a(g8
I1498
tp75
a(g8
I1466
tp76
a(g8
I1434
tp77
a(g8
I1402
tp78
a(g8
I1370
tp79
a(g8
I1338
tp80
a(g8
I1306
tp81
a(g8
I1274
tp82
a(g8
I1242
tp83
a(g8
I1210
tp84
a(g8
I1178
tp85
a(g8
I1146
tp86
a(g8
I1114
tp87
a(g8
I1082
tp88
a(g8
I1050
tp89
a(g8
I1018
tp90
a(g8
I986
tp91
a(g8
I954
tp92
a(g8
I922
tp93
a(g8
I890
tp94
a(g8
I858
tp95
a(g8
I826
tp96
a(g8
I794
tp97
a(g8
I762
tp98
a(g8
I730
tp99
a(g8
I698
tp100
a(g8
I666
tp101
a(g8
I634
tp102
a(g8
I602
tp103
a(g8
I570
tp104
a(g8
I538
tp105
a(g8
I513
tp106
a(S'catch39'
p107
I3530
tp108
a(g107
I3498
tp109
a(g107
I3466
tp110
a(g107
I3434
tp111
a(g107
I3402
tp112
a(g107
I3370
tp113
a(g107
I3338
tp114
a(g107
I3306
tp115
a(g107
I3274
tp116
a(g107
I3242
tp117
a(g107
I3210
tp118
a(g107
I3178
tp119
a(g107
I3146
tp120
a(g107
I3114
tp121
a(g107
I3082
tp122
a(g107
I3050
tp123
a(g107
I3018
tp124
a(g107
I2986
tp125
a(g107
I2954
tp126
a(g107
I2922
tp127
a(g107
I2890
tp128
a(g107
I2858
tp129
a(g107
I2826
tp130
a(g107
I2794
tp131
a(g107
I2762
tp132
a(g107
I2730
tp133
a(g107
I2698
tp134
a(g107
I2666
tp135
a(g107
I2634
tp136
a(g107
I2602
tp137
a(g107
I2570
tp138
a(g107
I2538
tp139
a(g107
I2506
tp140
a(g107
I2474
tp141
a(g107
I2442
tp142
a(g107
I2410
tp143
a(g107
I2378
tp144
a(g107
I2346
tp145
a(g107
I2314
tp146
a(g107
I2282
tp147
a(g107
I2250
tp148
a(g107
I2218
tp149
a(g107
I2186
tp150
a(g107
I2154
tp151
a(g107
I2122
tp152
a(g107
I2090
tp153
a(g107
I2058
tp154
a(g107
I2026
tp155
a(g107
I1994
tp156
a(g107
I1962
tp157
a(g107
I1930
tp158
a(g107
I1898
tp159
a(g107
I1866
tp160
a(g107
I1834
tp161
a(g107
I1802
tp162
a(g107
I1770
tp163
a(g107
I1738
tp164
a(g107
I1706
tp165
a(g107
I1674
tp166
a(g107
I1642
tp167
a(g107
I1610
tp168
a(g107
I1578
tp169
a(g107
I1546
tp170
a(g107
I1514
tp171
a(g107
I1482
tp172
a(g107
I1450
tp173
a(g107
I1418
tp174
a(g107
I1386
tp175
a(g107
I1354
tp176
a(g107
I1322
tp177
a(g107
I1290
tp178
a(g107
I1258
tp179
a(g107
I1226
tp180
a(g107
I1194
tp181
a(g107
I1162
tp182
a(g107
I1130
tp183
a(g107
I1098
tp184
a(g107
I1066
tp185
a(g107
I1034
tp186
a(g107
I1002
tp187
a(g107
I970
tp188
a(g107
I938
tp189
a(g107
I906
tp190
a(g107
I874
tp191
a(g107
I842
tp192
a(g107
I810
tp193
a(g107
I778
tp194
a(g107
I746
tp195
a(g107
I714
tp196
a(g107
I682
tp197
a(g107
I650
tp198
a(g107
I618
tp199
a(g107
I586
tp200
a(g107
I554
tp201
a(g107
I522
tp202
a(g107
I513
tp203
a(S'convo43'
p204
I3010
tp205
a(g204
I2978
tp206
a(g204
I2946
tp207
a(g204
I2914
tp208
a(g204
I2882
tp209
a(g204
I2850
tp210
a(g204
I2818
tp211
a(g204
I2786
tp212
a(g204
I2754
tp213
a(g204
I2722
tp214
a(g204
I2690
tp215
a(g204
I2658
tp216
a(g204
I2626
tp217
a(g204
I2594
tp218
a(g204
I2562
tp219
a(g204
I2530
tp220
a(g204
I2498
tp221
a(g204
I2466
tp222
a(g204
I2434
tp223
a(g204
I2402
tp224
a(g204
I2370
tp225
a(g204
I2338
tp226
a(g204
I2306
tp227
a(g204
I2274
tp228
a(g204
I2242
tp229
a(g204
I2210
tp230
a(g204
I2178
tp231
a(g204
I2146
tp232
a(g204
I2114
tp233
a(g204
I2082
tp234
a(g204
I2050
tp235
a(g204
I2018
tp236
a(g204
I1986
tp237
a(g204
I1954
tp238
a(g204
I1922
tp239
a(g204
I1890
tp240
a(g204
I1858
tp241
a(g204
I1826
tp242
a(g204
I1794
tp243
a(g204
I1762
tp244
a(g204
I1730
tp245
a(g204
I1698
tp246
a(g204
I1666
tp247
a(g204
I1634
tp248
a(g204
I1602
tp249
a(g204
I1570
tp250
a(g204
I1538
tp251
a(g204
I1506
tp252
a(g204
I1474
tp253
a(g204
I1442
tp254
a(g204
I1410
tp255
a(g204
I1378
tp256
a(g204
I1346
tp257
a(g204
I1314
tp258
a(g204
I1282
tp259
a(g204
I1250
tp260
a(g204
I1218
tp261
a(g204
I1186
tp262
a(g204
I1154
tp263
a(g204
I1122
tp264
a(g204
I1090
tp265
a(g204
I1058
tp266
a(g204
I1026
tp267
a(g204
I994
tp268
a(g204
I962
tp269
a(g204
I930
tp270
a(g204
I898
tp271
a(g204
I866
tp272
a(g204
I834
tp273
a(g204
I802
tp274
a(g204
I770
tp275
a(g204
I738
tp276
a(g204
I706
tp277
a(g204
I674
tp278
a(g204
I642
tp279
a(g204
I610
tp280
a(g204
I578
tp281
a(g204
I546
tp282
a(g204
I514
tp283
a(g204
I513
tp284
a(S'catch42'
p285
I2258
tp286
a(g285
I2226
tp287
a(g285
I2194
tp288
a(g285
I2162
tp289
a(g285
I2130
tp290
a(g285
I2098
tp291
a(g285
I2066
tp292
a(g285
I2034
tp293
a(g285
I2002
tp294
a(g285
I1970
tp295
a(g285
I1938
tp296
a(g285
I1906
tp297
a(g285
I1874
tp298
a(g285
I1842
tp299
a(g285
I1810
tp300
a(g285
I1778
tp301
a(g285
I1746
tp302
a(g285
I1714
tp303
a(g285
I1682
tp304
a(g285
I1650
tp305
a(g285
I1618
tp306
a(g285
I1586
tp307
a(g285
I1554
tp308
a(g285
I1522
tp309
a(g285
I1490
tp310
a(g285
I1458
tp311
a(g285
I1426
tp312
a(g285
I1394
tp313
a(g285
I1362
tp314
a(g285
I1330
tp315
a(g285
I1298
tp316
a(g285
I1266
tp317
a(g285
I1234
tp318
a(g285
I1202
tp319
a(g285
I1170
tp320
a(g285
I1138
tp321
a(g285
I1106
tp322
a(g285
I1074
tp323
a(g285
I1042
tp324
a(g285
I1010
tp325
a(g285
I978
tp326
a(g285
I946
tp327
a(g285
I914
tp328
a(g285
I882
tp329
a(g285
I850
tp330
a(g285
I818
tp331
a(g285
I786
tp332
a(g285
I754
tp333
a(g285
I722
tp334
a(g285
I690
tp335
a(g285
I658
tp336
a(g285
I626
tp337
a(g285
I594
tp338
a(g285
I562
tp339
a(g285
I530
tp340
a(g285
I513
tp341
a(S'catch36'
p342
I1656
tp343
a(g342
I1624
tp344
a(g342
I1592
tp345
a(g342
I1560
tp346
a(g342
I1528
tp347
a(g342
I1496
tp348
a(g342
I1464
tp349
a(g342
I1432
tp350
a(g342
I1400
tp351
a(g342
I1368
tp352
a(g342
I1336
tp353
a(g342
I1304
tp354
a(g342
I1272
tp355
a(g342
I1240
tp356
a(g342
I1208
tp357
a(g342
I1176
tp358
a(g342
I1144
tp359
a(g342
I1112
tp360
a(g342
I1080
tp361
a(g342
I1048
tp362
a(g342
I1016
tp363
a(g342
I984
tp364
a(g342
I952
tp365
a(g342
I920
tp366
a(g342
I888
tp367
a(g342
I856
tp368
a(g342
I824
tp369
a(g342
I792
tp370
a(g342
I760
tp371
a(g342
I728
tp372
a(g342
I696
tp373
a(g342
I664
tp374
a(g342
I632
tp375
a(g342
I600
tp376
a(g342
I568
tp377
a(g342
I536
tp378
a(g342
I513
tp379
a(S'catch40'
p380
I1360
tp381
a(g380
I1328
tp382
a(g380
I1296
tp383
a(g380
I1264
tp384
a(g380
I1232
tp385
a(g380
I1200
tp386
a(g380
I1168
tp387
a(g380
I1136
tp388
a(g380
I1104
tp389
a(g380
I1072
tp390
a(g380
I1040
tp391
a(g380
I1008
tp392
a(g380
I976
tp393
a(g380
I944
tp394
a(g380
I912
tp395
a(g380
I880
tp396
a(g380
I848
tp397
a(g380
I816
tp398
a(g380
I784
tp399
a(g380
I752
tp400
a(g380
I720
tp401
a(g380
I688
tp402
a(g380
I656
tp403
a(g380
I624
tp404
a(g380
I592
tp405
a(g380
I560
tp406
a(g380
I528
tp407
a(g380
I513
tp408
a(S'catch41'
p409
I1698
tp410
a(g409
I1666
tp411
a(g409
I1634
tp412
a(g409
I1602
tp413
a(g409
I1570
tp414
a(g409
I1538
tp415
a(g409
I1506
tp416
a(g409
I1474
tp417
a(g409
I1442
tp418
a(g409
I1410
tp419
a(g409
I1378
tp420
a(g409
I1346
tp421
a(g409
I1314
tp422
a(g409
I1282
tp423
a(g409
I1250
tp424
a(g409
I1218
tp425
a(g409
I1186
tp426
a(g409
I1154
tp427
a(g409
I1122
tp428
a(g409
I1090
tp429
a(g409
I1058
tp430
a(g409
I1026
tp431
a(g409
I994
tp432
a(g409
I962
tp433
a(g409
I930
tp434
a(g409
I898
tp435
a(g409
I866
tp436
a(g409
I834
tp437
a(g409
I802
tp438
a(g409
I770
tp439
a(g409
I738
tp440
a(g409
I706
tp441
a(g409
I674
tp442
a(g409
I642
tp443
a(g409
I610
tp444
a(g409
I578
tp445
a(g409
I546
tp446
a(g409
I514
tp447
a(g409
I513
tp448
a(S'patty30'
p449
I2063
tp450
a(g449
I2031
tp451
a(g449
I1999
tp452
a(g449
I1967
tp453
a(g449
I1935
tp454
a(g449
I1903
tp455
a(g449
I1871
tp456
a(g449
I1839
tp457
a(g449
I1807
tp458
a(g449
I1775
tp459
a(g449
I1743
tp460
a(g449
I1711
tp461
a(g449
I1679
tp462
a(g449
I1647
tp463
a(g449
I1615
tp464
a(g449
I1583
tp465
a(g449
I1551
tp466
a(g449
I1519
tp467
a(g449
I1487
tp468
a(g449
I1455
tp469
a(g449
I1423
tp470
a(g449
I1391
tp471
a(g449
I1359
tp472
a(g449
I1327
tp473
a(g449
I1295
tp474
a(g449
I1263
tp475
a(g449
I1231
tp476
a(g449
I1199
tp477
a(g449
I1167
tp478
a(g449
I1135
tp479
a(g449
I1103
tp480
a(g449
I1071
tp481
a(g449
I1039
tp482
a(g449
I1007
tp483
a(g449
I975
tp484
a(g449
I943
tp485
a(g449
I911
tp486
a(g449
I879
tp487
a(g449
I847
tp488
a(g449
I815
tp489
a(g449
I783
tp490
a(g449
I751
tp491
a(g449
I719
tp492
a(g449
I687
tp493
a(g449
I655
tp494
a(g449
I623
tp495
a(g449
I591
tp496
a(g449
I559
tp497
a(g449
I527
tp498
a(g449
I513
tp499
a(S'patty31'
p500
I1410
tp501
a(g500
I1378
tp502
a(g500
I1346
tp503
a(g500
I1314
tp504
a(g500
I1282
tp505
a(g500
I1250
tp506
a(g500
I1218
tp507
a(g500
I1186
tp508
a(g500
I1154
tp509
a(g500
I1122
tp510
a(g500
I1090
tp511
a(g500
I1058
tp512
a(g500
I1026
tp513
a(g500
I994
tp514
a(g500
I962
tp515
a(g500
I930
tp516
a(g500
I898
tp517
a(g500
I866
tp518
a(g500
I834
tp519
a(g500
I802
tp520
a(g500
I770
tp521
a(g500
I738
tp522
a(g500
I706
tp523
a(g500
I674
tp524
a(g500
I642
tp525
a(g500
I610
tp526
a(g500
I578
tp527
a(g500
I546
tp528
a(g500
I514
tp529
a(g500
I513
tp530
a(S'patty27'
p531
I934
tp532
a(g531
I902
tp533
a(g531
I870
tp534
a(g531
I838
tp535
a(g531
I806
tp536
a(g531
I774
tp537
a(g531
I742
tp538
a(g531
I710
tp539
a(g531
I678
tp540
a(g531
I646
tp541
a(g531
I614
tp542
a(g531
I582
tp543
a(g531
I550
tp544
a(g531
I518
tp545
a(g531
I513
tp546
a(S'patty26'
p547
I2304
tp548
a(g547
I2272
tp549
a(g547
I2240
tp550
a(g547
I2208
tp551
a(g547
I2176
tp552
a(g547
I2144
tp553
a(g547
I2112
tp554
a(g547
I2080
tp555
a(g547
I2048
tp556
a(g547
I2016
tp557
a(g547
I1984
tp558
a(g547
I1952
tp559
a(g547
I1920
tp560
a(g547
I1888
tp561
a(g547
I1856
tp562
a(g547
I1824
tp563
a(g547
I1792
tp564
a(g547
I1760
tp565
a(g547
I1728
tp566
a(g547
I1696
tp567
a(g547
I1664
tp568
a(g547
I1632
tp569
a(g547
I1600
tp570
a(g547
I1568
tp571
a(g547
I1536
tp572
a(g547
I1504
tp573
a(g547
I1472
tp574
a(g547
I1440
tp575
a(g547
I1408
tp576
a(g547
I1376
tp577
a(g547
I1344
tp578
a(g547
I1312
tp579
a(g547
I1280
tp580
a(g547
I1248
tp581
a(g547
I1216
tp582
a(g547
I1184
tp583
a(g547
I1152
tp584
a(g547
I1120
tp585
a(g547
I1088
tp586
a(g547
I1056
tp587
a(g547
I1024
tp588
a(g547
I992
tp589
a(g547
I960
tp590
a(g547
I928
tp591
a(g547
I896
tp592
a(g547
I864
tp593
a(g547
I832
tp594
a(g547
I800
tp595
a(g547
I768
tp596
a(g547
I736
tp597
a(g547
I704
tp598
a(g547
I672
tp599
a(g547
I640
tp600
a(g547
I608
tp601
a(g547
I576
tp602
a(g547
I544
tp603
a(g547
I513
tp604
a(S'catch37'
p605
I2128
tp606
a(g605
I2096
tp607
a(g605
I2064
tp608
a(g605
I2032
tp609
a(g605
I2000
tp610
a(g605
I1968
tp611
a(g605
I1936
tp612
a(g605
I1904
tp613
a(g605
I1872
tp614
a(g605
I1840
tp615
a(g605
I1808
tp616
a(g605
I1776
tp617
a(g605
I1744
tp618
a(g605
I1712
tp619
a(g605
I1680
tp620
a(g605
I1648
tp621
a(g605
I1616
tp622
a(g605
I1584
tp623
a(g605
I1552
tp624
a(g605
I1520
tp625
a(g605
I1488
tp626
a(g605
I1456
tp627
a(g605
I1424
tp628
a(g605
I1392
tp629
a(g605
I1360
tp630
a(g605
I1328
tp631
a(g605
I1296
tp632
a(g605
I1264
tp633
a(g605
I1232
tp634
a(g605
I1200
tp635
a(g605
I1168
tp636
a(g605
I1136
tp637
a(g605
I1104
tp638
a(g605
I1072
tp639
a(g605
I1040
tp640
a(g605
I1008
tp641
a(g605
I976
tp642
a(g605
I944
tp643
a(g605
I912
tp644
a(g605
I880
tp645
a(g605
I848
tp646
a(g605
I816
tp647
a(g605
I784
tp648
a(g605
I752
tp649
a(g605
I720
tp650
a(g605
I688
tp651
a(g605
I656
tp652
a(g605
I624
tp653
a(g605
I592
tp654
a(g605
I560
tp655
a(g605
I528
tp656
a(g605
I513
tp657
a(S'patty28'
p658
I712
tp659
a(g658
I680
tp660
a(g658
I648
tp661
a(g658
I616
tp662
a(g658
I584
tp663
a(g658
I552
tp664
a(g658
I520
tp665
a(g658
I513
tp666
a(S'convo47'
p667
I3980
tp668
a(g667
I3948
tp669
a(g667
I3916
tp670
a(g667
I3884
tp671
a(g667
I3852
tp672
a(g667
I3820
tp673
a(g667
I3788
tp674
a(g667
I3756
tp675
a(g667
I3724
tp676
a(g667
I3692
tp677
a(g667
I3660
tp678
a(g667
I3628
tp679
a(g667
I3596
tp680
a(g667
I3564
tp681
a(g667
I3532
tp682
a(g667
I3500
tp683
a(g667
I3468
tp684
a(g667
I3436
tp685
a(g667
I3404
tp686
a(g667
I3372
tp687
a(g667
I3340
tp688
a(g667
I3308
tp689
a(g667
I3276
tp690
a(g667
I3244
tp691
a(g667
I3212
tp692
a(g667
I3180
tp693
a(g667
I3148
tp694
a(g667
I3116
tp695
a(g667
I3084
tp696
a(g667
I3052
tp697
a(g667
I3020
tp698
a(g667
I2988
tp699
a(g667
I2956
tp700
a(g667
I2924
tp701
a(g667
I2892
tp702
a(g667
I2860
tp703
a(g667
I2828
tp704
a(g667
I2796
tp705
a(g667
I2764
tp706
a(g667
I2732
tp707
a(g667
I2700
tp708
a(g667
I2668
tp709
a(g667
I2636
tp710
a(g667
I2604
tp711
a(g667
I2572
tp712
a(g667
I2540
tp713
a(g667
I2508
tp714
a(g667
I2476
tp715
a(g667
I2444
tp716
a(g667
I2412
tp717
a(g667
I2380
tp718
a(g667
I2348
tp719
a(g667
I2316
tp720
a(g667
I2284
tp721
a(g667
I2252
tp722
a(g667
I2220
tp723
a(g667
I2188
tp724
a(g667
I2156
tp725
a(g667
I2124
tp726
a(g667
I2092
tp727
a(g667
I2060
tp728
a(g667
I2028
tp729
a(g667
I1996
tp730
a(g667
I1964
tp731
a(g667
I1932
tp732
a(g667
I1900
tp733
a(g667
I1868
tp734
a(g667
I1836
tp735
a(g667
I1804
tp736
a(g667
I1772
tp737
a(g667
I1740
tp738
a(g667
I1708
tp739
a(g667
I1676
tp740
a(g667
I1644
tp741
a(g667
I1612
tp742
a(g667
I1580
tp743
a(g667
I1548
tp744
a(g667
I1516
tp745
a(g667
I1484
tp746
a(g667
I1452
tp747
a(g667
I1420
tp748
a(g667
I1388
tp749
a(g667
I1356
tp750
a(g667
I1324
tp751
a(g667
I1292
tp752
a(g667
I1260
tp753
a(g667
I1228
tp754
a(g667
I1196
tp755
a(g667
I1164
tp756
a(g667
I1132
tp757
a(g667
I1100
tp758
a(g667
I1068
tp759
a(g667
I1036
tp760
a(g667
I1004
tp761
a(g667
I972
tp762
a(g667
I940
tp763
a(g667
I908
tp764
a(g667
I876
tp765
a(g667
I844
tp766
a(g667
I812
tp767
a(g667
I780
tp768
a(g667
I748
tp769
a(g667
I716
tp770
a(g667
I684
tp771
a(g667
I652
tp772
a(g667
I620
tp773
a(g667
I588
tp774
a(g667
I556
tp775
a(g667
I524
tp776
a(g667
I513
tp777
asb.